
Doom621.elf:     file format elf32-tradbigmips


Disassembly of section .text:

80020000 <main>:
80020000:	27bdffc8 	addiu	sp,sp,-56
80020004:	afbf0034 	sw	ra,52(sp)
80020008:	afbe0030 	sw	s8,48(sp)
8002000c:	03a0f021 	move	s8,sp
80020010:	a3c00020 	sb	zero,32(s8)
80020014:	a3c00021 	sb	zero,33(s8)
80020018:	24020005 	li	v0,5
8002001c:	afc20024 	sw	v0,36(s8)
80020020:	24020009 	li	v0,9
80020024:	afc20028 	sw	v0,40(s8)
80020028:	afc0002c 	sw	zero,44(s8)
8002002c:	24020003 	li	v0,3
80020030:	afc20010 	sw	v0,16(s8)
80020034:	2402000c 	li	v0,12
80020038:	afc20014 	sw	v0,20(s8)
8002003c:	2402000f 	li	v0,15
80020040:	a3c20020 	sb	v0,32(s8)
80020044:	24020002 	li	v0,2
80020048:	a3c20021 	sb	v0,33(s8)
8002004c:	27c40024 	addiu	a0,s8,36
80020050:	27c50028 	addiu	a1,s8,40
80020054:	27c3002c 	addiu	v1,s8,44
80020058:	27c20020 	addiu	v0,s8,32
8002005c:	00603021 	move	a2,v1
80020060:	00403821 	move	a3,v0
80020064:	0c00805a 	jal	80020168 <shift>
80020068:	00000000 	nop
8002006c:	27c20024 	addiu	v0,s8,36
80020070:	afc20018 	sw	v0,24(s8)
80020074:	27c20028 	addiu	v0,s8,40
80020078:	afc2001c 	sw	v0,28(s8)
8002007c:	8fc40018 	lw	a0,24(s8)
80020080:	8fc5001c 	lw	a1,28(s8)
80020084:	0c008046 	jal	80020118 <swap>
80020088:	00000000 	nop
8002008c:	8fc20018 	lw	v0,24(s8)
80020090:	8c420000 	lw	v0,0(v0)
80020094:	afc20024 	sw	v0,36(s8)
80020098:	8fc2001c 	lw	v0,28(s8)
8002009c:	8c420000 	lw	v0,0(v0)
800200a0:	afc20028 	sw	v0,40(s8)
800200a4:	08008032 	j	800200c8 <main+0xc8>
800200a8:	00000000 	nop
800200ac:	8fc3002c 	lw	v1,44(s8)
800200b0:	8fc20028 	lw	v0,40(s8)
800200b4:	00621023 	subu	v0,v1,v0
800200b8:	afc2002c 	sw	v0,44(s8)
800200bc:	8fc20028 	lw	v0,40(s8)
800200c0:	2442ffff 	addiu	v0,v0,-1
800200c4:	afc20028 	sw	v0,40(s8)
800200c8:	8fc20028 	lw	v0,40(s8)
800200cc:	0441fff7 	bgez	v0,800200ac <main+0xac>
800200d0:	00000000 	nop
800200d4:	8fc20028 	lw	v0,40(s8)
800200d8:	28420003 	slti	v0,v0,3
800200dc:	10400003 	beqz	v0,800200ec <main+0xec>
800200e0:	00000000 	nop
800200e4:	24020030 	li	v0,48
800200e8:	afc20028 	sw	v0,40(s8)
800200ec:	8fc30024 	lw	v1,36(s8)
800200f0:	8fc20028 	lw	v0,40(s8)
800200f4:	00621821 	addu	v1,v1,v0
800200f8:	8fc2002c 	lw	v0,44(s8)
800200fc:	00621021 	addu	v0,v1,v0
80020100:	03c0e821 	move	sp,s8
80020104:	8fbf0034 	lw	ra,52(sp)
80020108:	8fbe0030 	lw	s8,48(sp)
8002010c:	27bd0038 	addiu	sp,sp,56
80020110:	03e00008 	jr	ra
80020114:	00000000 	nop

80020118 <swap>:
80020118:	27bdfff0 	addiu	sp,sp,-16
8002011c:	afbe000c 	sw	s8,12(sp)
80020120:	03a0f021 	move	s8,sp
80020124:	afc40010 	sw	a0,16(s8)
80020128:	afc50014 	sw	a1,20(s8)
8002012c:	8fc20010 	lw	v0,16(s8)
80020130:	8c420000 	lw	v0,0(v0)
80020134:	afc20000 	sw	v0,0(s8)
80020138:	8fc20014 	lw	v0,20(s8)
8002013c:	8c430000 	lw	v1,0(v0)
80020140:	8fc20010 	lw	v0,16(s8)
80020144:	ac430000 	sw	v1,0(v0)
80020148:	8fc20014 	lw	v0,20(s8)
8002014c:	8fc30000 	lw	v1,0(s8)
80020150:	ac430000 	sw	v1,0(v0)
80020154:	03c0e821 	move	sp,s8
80020158:	8fbe000c 	lw	s8,12(sp)
8002015c:	27bd0010 	addiu	sp,sp,16
80020160:	03e00008 	jr	ra
80020164:	00000000 	nop

80020168 <shift>:
80020168:	27bdffd8 	addiu	sp,sp,-40
8002016c:	afbf0024 	sw	ra,36(sp)
80020170:	afbe0020 	sw	s8,32(sp)
80020174:	03a0f021 	move	s8,sp
80020178:	afc40028 	sw	a0,40(s8)
8002017c:	afc5002c 	sw	a1,44(s8)
80020180:	afc60030 	sw	a2,48(s8)
80020184:	afc70034 	sw	a3,52(s8)
80020188:	8fc20034 	lw	v0,52(s8)
8002018c:	24420001 	addiu	v0,v0,1
80020190:	afc20034 	sw	v0,52(s8)
80020194:	8fc20034 	lw	v0,52(s8)
80020198:	90420000 	lbu	v0,0(v0)
8002019c:	a3c20010 	sb	v0,16(s8)
800201a0:	8fc20034 	lw	v0,52(s8)
800201a4:	2442ffff 	addiu	v0,v0,-1
800201a8:	afc20034 	sw	v0,52(s8)
800201ac:	8fc20034 	lw	v0,52(s8)
800201b0:	90420000 	lbu	v0,0(v0)
800201b4:	a3c20018 	sb	v0,24(s8)
800201b8:	24020002 	li	v0,2
800201bc:	afc20014 	sw	v0,20(s8)
800201c0:	93c30010 	lbu	v1,16(s8)
800201c4:	8fc20014 	lw	v0,20(s8)
800201c8:	0043102a 	slt	v0,v0,v1
800201cc:	14400007 	bnez	v0,800201ec <shift+0x84>
800201d0:	00000000 	nop
800201d4:	8fc2002c 	lw	v0,44(s8)
800201d8:	8c430000 	lw	v1,0(v0)
800201dc:	8fc20014 	lw	v0,20(s8)
800201e0:	00431804 	sllv	v1,v1,v0
800201e4:	8fc2002c 	lw	v0,44(s8)
800201e8:	ac430000 	sw	v1,0(v0)
800201ec:	8fc20028 	lw	v0,40(s8)
800201f0:	8c420000 	lw	v0,0(v0)
800201f4:	00021843 	sra	v1,v0,0x1
800201f8:	8fc20028 	lw	v0,40(s8)
800201fc:	ac430000 	sw	v1,0(v0)
80020200:	27c20018 	addiu	v0,s8,24
80020204:	8fc40028 	lw	a0,40(s8)
80020208:	8fc5002c 	lw	a1,44(s8)
8002020c:	8fc60030 	lw	a2,48(s8)
80020210:	00403821 	move	a3,v0
80020214:	0c00808d 	jal	80020234 <doop>
80020218:	00000000 	nop
8002021c:	03c0e821 	move	sp,s8
80020220:	8fbf0024 	lw	ra,36(sp)
80020224:	8fbe0020 	lw	s8,32(sp)
80020228:	27bd0028 	addiu	sp,sp,40
8002022c:	03e00008 	jr	ra
80020230:	00000000 	nop

80020234 <doop>:
80020234:	27bdfff8 	addiu	sp,sp,-8
80020238:	afbe0004 	sw	s8,4(sp)
8002023c:	03a0f021 	move	s8,sp
80020240:	afc40008 	sw	a0,8(s8)
80020244:	afc5000c 	sw	a1,12(s8)
80020248:	afc60010 	sw	a2,16(s8)
8002024c:	afc70014 	sw	a3,20(s8)
80020250:	8fc20008 	lw	v0,8(s8)
80020254:	8c430000 	lw	v1,0(v0)
80020258:	8fc2000c 	lw	v0,12(s8)
8002025c:	8c420000 	lw	v0,0(v0)
80020260:	70621802 	mul	v1,v1,v0
80020264:	8fc20014 	lw	v0,20(s8)
80020268:	90420000 	lbu	v0,0(v0)
8002026c:	00621821 	addu	v1,v1,v0
80020270:	8fc20010 	lw	v0,16(s8)
80020274:	ac430000 	sw	v1,0(v0)
80020278:	03c0e821 	move	sp,s8
8002027c:	8fbe0004 	lw	s8,4(sp)
80020280:	27bd0008 	addiu	sp,sp,8
80020284:	03e00008 	jr	ra
80020288:	00000000 	nop

Disassembly of section .reginfo:

00000000 <.reginfo>:
   0:	e00000fc 	sc	zero,252(zero)
	...

Disassembly of section .pdr:

00000000 <.pdr>:
   0:	80020000 	lb	v0,0(zero)
   4:	c0000000 	ll	zero,0(zero)
   8:	fffffffc 	sdc3	$31,-4(ra)
	...
  14:	00000038 	0x38
  18:	0000001e 	0x1e
  1c:	0000001f 	0x1f
  20:	80020118 	lb	v0,280(zero)
  24:	40000000 	mfc0	zero,c0_index
  28:	fffffffc 	sdc3	$31,-4(ra)
	...
  34:	00000010 	mfhi	zero
  38:	0000001e 	0x1e
  3c:	0000001f 	0x1f
  40:	80020168 	lb	v0,360(zero)
  44:	c0000000 	ll	zero,0(zero)
  48:	fffffffc 	sdc3	$31,-4(ra)
	...
  54:	00000028 	0x28
  58:	0000001e 	0x1e
  5c:	0000001f 	0x1f
  60:	80020234 	lb	v0,564(zero)
  64:	40000000 	mfc0	zero,c0_index
  68:	fffffffc 	sdc3	$31,-4(ra)
	...
  74:	00000008 	jr	zero
  78:	0000001e 	0x1e
  7c:	0000001f 	0x1f

Disassembly of section .comment:

00000000 <.comment>:
   0:	4743433a 	c1	0x143433a
   4:	2028536f 	addi	t0,at,21359
   8:	75726365 	jalx	5c98d94 <main-0x7a38726c>
   c:	72792047 	0x72792047
  10:	2b2b204c 	slti	t3,t9,8268
  14:	69746520 	0x69746520
  18:	32303131 	andi	s0,s1,0x3131
  1c:	2e30332d 	sltiu	s0,s1,13101
  20:	35322920 	ori	s2,t1,0x2920
  24:	342e352e 	ori	t6,at,0x352e
  28:	Address 0x0000000000000028 is out of bounds.


Disassembly of section .gnu.attributes:

00000000 <.gnu.attributes>:
   0:	41000000 	bc0f	4 <main-0x8001fffc>
   4:	0f676e75 	jal	d9db9d4 <main-0x7264462c>
   8:	00010000 	sll	zero,at,0x0
   c:	00070401 	0x70401
